target datalayout = "e-m:e-p270:32:32-p271:32:32-p272:64:64-i64:64-i128:128-f80:128-n8:16:32:64-S128"
target triple = "x86_64-pc-linux-gnu"

%"class.std::__cxx11::basic_string" = type { %"struct.std::__cxx11::basic_string<char>::_Alloc_hider", i64, %union.anon }
%"struct.std::__cxx11::basic_string<char>::_Alloc_hider" = type { ptr }
%union.anon = type { i64, [8 x i8] }
%"class.doctest::String" = type { %union.anon.7 }
%union.anon.7 = type { %"struct.doctest::String::view", [8 x i8] }
%"struct.doctest::String::view" = type { ptr, i32, i32 }
%"struct.doctest::SubcaseSignature" = type <{ %"class.doctest::String", ptr, i32, [4 x i8] }>
%"struct.doctest::detail::Timer" = type { i64 }
%"class.std::vector.19" = type { %"struct.std::_Vector_base.20" }
%"struct.std::_Vector_base.20" = type { %"struct.std::_Vector_base<doctest::String, std::allocator<doctest::String>>::_Vector_impl" }
%"struct.std::_Vector_base<doctest::String, std::allocator<doctest::String>>::_Vector_impl" = type { %"struct.std::_Vector_base<doctest::String, std::allocator<doctest::String>>::_Vector_impl_data" }
%"struct.std::_Vector_base<doctest::String, std::allocator<doctest::String>>::_Vector_impl_data" = type { ptr, ptr, ptr }
%union.pthread_mutex_t = type { %struct.__pthread_mutex_s }
%struct.__pthread_mutex_s = type { i32, i32, i32, i32, i32, i16, i16, %struct.__pthread_internal_list }
%struct.__pthread_internal_list = type { ptr, ptr }
%"class.__gnu_cxx::__normal_iterator.123" = type { ptr }
%"struct.doctest::IReporter" = type { ptr }
%"class.doctest::(anonymous namespace)::XmlWriter" = type { i8, i8, %"class.std::vector.124", %"class.std::__cxx11::basic_string", ptr }
%"class.std::vector.124" = type { %"struct.std::_Vector_base.125" }
%"struct.std::_Vector_base.125" = type { %"struct.std::_Vector_base<std::__cxx11::basic_string<char>, std::allocator<std::__cxx11::basic_string<char>>>::_Vector_impl" }
%"struct.std::_Vector_base<std::__cxx11::basic_string<char>, std::allocator<std::__cxx11::basic_string<char>>>::_Vector_impl" = type { %"struct.std::_Vector_base<std::__cxx11::basic_string<char>, std::allocator<std::__cxx11::basic_string<char>>>::_Vector_impl_data" }
%"struct.std::_Vector_base<std::__cxx11::basic_string<char>, std::allocator<std::__cxx11::basic_string<char>>>::_Vector_impl_data" = type { ptr, ptr, ptr }
%"class.std::mutex" = type { %"class.std::__mutex_base" }
%"class.std::__mutex_base" = type { %union.pthread_mutex_t }
%"struct.doctest::(anonymous namespace)::JUnitReporter" = type { %"struct.doctest::IReporter", %"class.doctest::(anonymous namespace)::XmlWriter", %"class.std::mutex", %"struct.doctest::detail::Timer", %"class.std::vector.19", %"struct.doctest::(anonymous namespace)::JUnitReporter::JUnitTestCaseData", ptr, ptr }
%"struct.doctest::(anonymous namespace)::JUnitReporter::JUnitTestCaseData" = type { %"class.std::vector.132", double, i32, i32 }
%"class.std::vector.132" = type { %"struct.std::_Vector_base.133" }
%"struct.std::_Vector_base.133" = type { %"struct.std::_Vector_base<doctest::(anonymous namespace)::JUnitReporter::JUnitTestCaseData::JUnitTestCase, std::allocator<doctest::(anonymous namespace)::JUnitReporter::JUnitTestCaseData::JUnitTestCase>>::_Vector_impl" }
%"struct.std::_Vector_base<doctest::(anonymous namespace)::JUnitReporter::JUnitTestCaseData::JUnitTestCase, std::allocator<doctest::(anonymous namespace)::JUnitReporter::JUnitTestCaseData::JUnitTestCase>>::_Vector_impl" = type { %"struct.std::_Vector_base<doctest::(anonymous namespace)::JUnitReporter::JUnitTestCaseData::JUnitTestCase, std::allocator<doctest::(anonymous namespace)::JUnitReporter::JUnitTestCaseData::JUnitTestCase>>::_Vector_impl_data" }
%"struct.std::_Vector_base<doctest::(anonymous namespace)::JUnitReporter::JUnitTestCaseData::JUnitTestCase, std::allocator<doctest::(anonymous namespace)::JUnitReporter::JUnitTestCaseData::JUnitTestCase>>::_Vector_impl_data" = type { ptr, ptr, ptr }

@_ZN7doctest6StringC1ERKS0_ = dso_local unnamed_addr alias void (ptr, ptr), ptr @_ZN7doctest6StringC2ERKS0_

; Function Attrs: mustprogress nounwind uwtable
define linkonce_odr dso_local void @_ZN9__gnu_cxx17__normal_iteratorIPN7doctest6StringESt6vectorIS2_SaIS2_EEEC2ERKS3_(ptr noundef nonnull align 8 dereferenceable(8) %0, ptr noundef nonnull align 8 dereferenceable(8) %1) unnamed_addr #1 comdat align 2 {
  %3 = alloca ptr, align 8
  %4 = alloca ptr, align 8
  store ptr %0, ptr %3, align 8, !tbaa !871
  store ptr %1, ptr %4, align 8, !tbaa !522
  %5 = load ptr, ptr %3, align 8
  %6 = getelementptr inbounds nuw %"class.__gnu_cxx::__normal_iterator.123", ptr %5, i32 0, i32 0
  %7 = load ptr, ptr %4, align 8, !tbaa !522
  %8 = load ptr, ptr %7, align 8, !tbaa !59
  store ptr %8, ptr %6, align 8, !tbaa !873
  ret void
}

; Function Attrs: mustprogress uwtable
define linkonce_odr dso_local void @_ZNSt15__new_allocatorIN7doctest6StringEE9constructIS1_JRKS1_EEEvPT_DpOT0_(ptr noundef nonnull align 1 dereferenceable(1) %0, ptr noundef %1, ptr noundef nonnull align 8 dereferenceable(24) %2) #8 comdat align 2 {
  %4 = alloca ptr, align 8
  %5 = alloca ptr, align 8
  %6 = alloca ptr, align 8
  store ptr %0, ptr %4, align 8, !tbaa !607
  store ptr %1, ptr %5, align 8, !tbaa !59
  store ptr %2, ptr %6, align 8, !tbaa !59
  %7 = load ptr, ptr %5, align 8, !tbaa !59
  %8 = load ptr, ptr %6, align 8, !tbaa !59
  call void @_ZN7doctest6StringC1ERKS0_(ptr noundef nonnull align 8 dereferenceable(24) %7, ptr noundef nonnull align 8 dereferenceable(24) %8)
  ret void
}

; Function Attrs: mustprogress nounwind uwtable
define linkonce_odr dso_local ptr @_ZNSt6vectorIN7doctest6StringESaIS1_EE3endEv(ptr noundef nonnull align 8 dereferenceable(24) %0) #1 comdat align 2 {
  %2 = alloca %"class.__gnu_cxx::__normal_iterator.123", align 8
  %3 = alloca ptr, align 8
  store ptr %0, ptr %3, align 8, !tbaa !126
  %4 = load ptr, ptr %3, align 8
  %5 = getelementptr inbounds nuw %"struct.std::_Vector_base.20", ptr %4, i32 0, i32 0
  %6 = getelementptr inbounds nuw %"struct.std::_Vector_base<doctest::String, std::allocator<doctest::String>>::_Vector_impl_data", ptr %5, i32 0, i32 1
  call void @_ZN9__gnu_cxx17__normal_iteratorIPN7doctest6StringESt6vectorIS2_SaIS2_EEEC2ERKS3_(ptr noundef nonnull align 8 dereferenceable(8) %2, ptr noundef nonnull align 8 dereferenceable(8) %6) #7
  %7 = getelementptr inbounds nuw %"class.__gnu_cxx::__normal_iterator.123", ptr %2, i32 0, i32 0
  %8 = load ptr, ptr %7, align 8
  ret ptr %8
}

; Function Attrs: mustprogress uwtable
define linkonce_odr dso_local void @_ZNSt16allocator_traitsISaIN7doctest6StringEEE9constructIS1_JRKS1_EEEvRS2_PT_DpOT0_(ptr noundef nonnull align 1 dereferenceable(1) %0, ptr noundef %1, ptr noundef nonnull align 8 dereferenceable(24) %2) #8 comdat align 2 {
  %4 = alloca ptr, align 8
  %5 = alloca ptr, align 8
  %6 = alloca ptr, align 8
  store ptr %0, ptr %4, align 8, !tbaa !601
  store ptr %1, ptr %5, align 8, !tbaa !59
  store ptr %2, ptr %6, align 8, !tbaa !59
  %7 = load ptr, ptr %4, align 8, !tbaa !601
  %8 = load ptr, ptr %5, align 8, !tbaa !59
  %9 = load ptr, ptr %6, align 8, !tbaa !59
  call void @_ZNSt15__new_allocatorIN7doctest6StringEE9constructIS1_JRKS1_EEEvPT_DpOT0_(ptr noundef nonnull align 1 dereferenceable(1) %7, ptr noundef %8, ptr noundef nonnull align 8 dereferenceable(24) %9)
  ret void
}

; Function Attrs: mustprogress uwtable
define linkonce_odr dso_local void @_ZNSt6vectorIN7doctest6StringESaIS1_EE9push_backERKS1_(ptr noundef nonnull align 8 dereferenceable(24) %0, ptr noundef nonnull align 8 dereferenceable(24) %1) #8 comdat align 2 {
  %3 = alloca ptr, align 8
  %4 = alloca ptr, align 8
  %5 = alloca %"class.__gnu_cxx::__normal_iterator.123", align 8
  store ptr %0, ptr %3, align 8, !tbaa !126
  store ptr %1, ptr %4, align 8, !tbaa !59
  %6 = load ptr, ptr %3, align 8
  %7 = getelementptr inbounds nuw %"struct.std::_Vector_base.20", ptr %6, i32 0, i32 0
  %8 = getelementptr inbounds nuw %"struct.std::_Vector_base<doctest::String, std::allocator<doctest::String>>::_Vector_impl_data", ptr %7, i32 0, i32 1
  %9 = load ptr, ptr %8, align 8, !tbaa !432
  %10 = getelementptr inbounds nuw %"struct.std::_Vector_base.20", ptr %6, i32 0, i32 0
  %11 = getelementptr inbounds nuw %"struct.std::_Vector_base<doctest::String, std::allocator<doctest::String>>::_Vector_impl_data", ptr %10, i32 0, i32 2
  %12 = load ptr, ptr %11, align 8, !tbaa !605
  %13 = icmp ne ptr %9, %12
  br i1 %13, label %14, label %24

14:                                               ; preds = %2
  %15 = getelementptr inbounds nuw %"struct.std::_Vector_base.20", ptr %6, i32 0, i32 0
  %16 = getelementptr inbounds nuw %"struct.std::_Vector_base.20", ptr %6, i32 0, i32 0
  %17 = getelementptr inbounds nuw %"struct.std::_Vector_base<doctest::String, std::allocator<doctest::String>>::_Vector_impl_data", ptr %16, i32 0, i32 1
  %18 = load ptr, ptr %17, align 8, !tbaa !432
  %19 = load ptr, ptr %4, align 8, !tbaa !59
  call void @_ZNSt16allocator_traitsISaIN7doctest6StringEEE9constructIS1_JRKS1_EEEvRS2_PT_DpOT0_(ptr noundef nonnull align 1 dereferenceable(1) %15, ptr noundef %18, ptr noundef nonnull align 8 dereferenceable(24) %19)
  %20 = getelementptr inbounds nuw %"struct.std::_Vector_base.20", ptr %6, i32 0, i32 0
  %21 = getelementptr inbounds nuw %"struct.std::_Vector_base<doctest::String, std::allocator<doctest::String>>::_Vector_impl_data", ptr %20, i32 0, i32 1
  %22 = load ptr, ptr %21, align 8, !tbaa !432
  %23 = getelementptr inbounds nuw %"class.doctest::String", ptr %22, i32 1
  store ptr %23, ptr %21, align 8, !tbaa !432
  br label %30

24:                                               ; preds = %2
  %25 = call ptr @_ZNSt6vectorIN7doctest6StringESaIS1_EE3endEv(ptr noundef nonnull align 8 dereferenceable(24) %6) #7
  %26 = getelementptr inbounds nuw %"class.__gnu_cxx::__normal_iterator.123", ptr %5, i32 0, i32 0
  store ptr %25, ptr %26, align 8
  %27 = load ptr, ptr %4, align 8, !tbaa !59
  %28 = getelementptr inbounds nuw %"class.__gnu_cxx::__normal_iterator.123", ptr %5, i32 0, i32 0
  %29 = load ptr, ptr %28, align 8
  call void @_ZNSt6vectorIN7doctest6StringESaIS1_EE17_M_realloc_insertIJRKS1_EEEvN9__gnu_cxx17__normal_iteratorIPS1_S3_EEDpOT_(ptr noundef nonnull align 8 dereferenceable(24) %6, ptr %29, ptr noundef nonnull align 8 dereferenceable(24) %27)
  br label %30

30:                                               ; preds = %24, %14
  ret void
}

; Function Attrs: mustprogress uwtable
define internal void @_ZN7doctest12_GLOBAL__N_113JUnitReporter13subcase_startERKNS_16SubcaseSignatureE(ptr noundef nonnull align 8 dereferenceable(208) %0, ptr noundef nonnull align 8 dereferenceable(36) %1) unnamed_addr #8 align 2 {
  %3 = alloca ptr, align 8
  %4 = alloca ptr, align 8
  store ptr %0, ptr %3, align 8, !tbaa !964
  store ptr %1, ptr %4, align 8, !tbaa !86
  %5 = load ptr, ptr %3, align 8
  %6 = getelementptr inbounds nuw %"struct.doctest::(anonymous namespace)::JUnitReporter", ptr %5, i32 0, i32 4
  %7 = load ptr, ptr %4, align 8, !tbaa !86
  %8 = getelementptr inbounds nuw %"struct.doctest::SubcaseSignature", ptr %7, i32 0, i32 0
  call void @_ZNSt6vectorIN7doctest6StringESaIS1_EE9push_backERKS1_(ptr noundef nonnull align 8 dereferenceable(24) %6, ptr noundef nonnull align 8 dereferenceable(24) %8)
  ret void
}